target datalayout = "e-m:e-p270:32:32-p271:32:32-p272:64:64-i64:64-i128:128-f80:128-n8:16:32:64-S128"
target triple = "x86_64-unknown-linux-gnu"

%"class.std::__cxx11::basic_string" = type { %"struct.std::__cxx11::basic_string<char>::_Alloc_hider", i64, %union.anon }
%"struct.std::__cxx11::basic_string<char>::_Alloc_hider" = type { ptr }
%union.anon = type { i64, [8 x i8] }
%"struct.rocksdb::CacheRecordHeader" = type { i32, i32, i32, i32 }
%"struct.rocksdb::CacheRecord" = type { %"struct.rocksdb::CacheRecordHeader", %"class.rocksdb::Slice", %"class.rocksdb::Slice" }
%"class.rocksdb::Slice" = type { ptr, i64 }

@stderr = external global ptr, align 8
@.str = private unnamed_addr constant [17 x i8] c"** magic %d ** \0A\00", align 1
@.str.1 = private unnamed_addr constant [20 x i8] c"** key_size %d ** \0A\00", align 1
@.str.2 = private unnamed_addr constant [20 x i8] c"** val_size %d ** \0A\00", align 1
@.str.3 = private unnamed_addr constant [15 x i8] c"** key %s ** \0A\00", align 1
@.str.4 = private unnamed_addr constant [15 x i8] c"** val %s ** \0A\00", align 1
@.str.5 = private unnamed_addr constant [4 x i8] c"%d.\00", align 1
@.str.6 = private unnamed_addr constant [22 x i8] c"\0A** cksum %d != %d **\00", align 1

; Function Attrs: mustprogress uwtable
define noundef i32 @_ZNK7rocksdb11CacheRecord10ComputeCRCEv(ptr noundef nonnull align 8 dereferenceable(48) %this) #0 align 2 {
entry:
  %this.addr = alloca ptr, align 8
  %crc = alloca i32, align 4
  %tmp = alloca %"struct.rocksdb::CacheRecordHeader", align 4
  store ptr %this, ptr %this.addr, align 8
  %this1 = load ptr, ptr %this.addr, align 8
  store i32 0, ptr %crc, align 4
  %hdr_ = getelementptr inbounds %"struct.rocksdb::CacheRecord", ptr %this1, i32 0, i32 0
  call void @llvm.memcpy.p0.p0.i64(ptr align 4 %tmp, ptr align 8 %hdr_, i64 16, i1 false)
  %crc_ = getelementptr inbounds %"struct.rocksdb::CacheRecordHeader", ptr %tmp, i32 0, i32 1
  store i32 0, ptr %crc_, align 4
  %0 = load i32, ptr %crc, align 4
  %call = call noundef i32 @_ZN7rocksdb6crc32c6ExtendEjPKcm(i32 noundef %0, ptr noundef %tmp, i64 noundef 16)
  store i32 %call, ptr %crc, align 4
  %1 = load i32, ptr %crc, align 4
  %key_ = getelementptr inbounds %"struct.rocksdb::CacheRecord", ptr %this1, i32 0, i32 1
  %call2 = call noundef ptr @_ZNK7rocksdb5Slice4dataEv(ptr noundef nonnull align 8 dereferenceable(16) %key_)
  %key_3 = getelementptr inbounds %"struct.rocksdb::CacheRecord", ptr %this1, i32 0, i32 1
  %call4 = call noundef i64 @_ZNK7rocksdb5Slice4sizeEv(ptr noundef nonnull align 8 dereferenceable(16) %key_3)
  %call5 = call noundef i32 @_ZN7rocksdb6crc32c6ExtendEjPKcm(i32 noundef %1, ptr noundef %call2, i64 noundef %call4)
  store i32 %call5, ptr %crc, align 4
  %2 = load i32, ptr %crc, align 4
  %val_ = getelementptr inbounds %"struct.rocksdb::CacheRecord", ptr %this1, i32 0, i32 2
  %call6 = call noundef ptr @_ZNK7rocksdb5Slice4dataEv(ptr noundef nonnull align 8 dereferenceable(16) %val_)
  %val_7 = getelementptr inbounds %"struct.rocksdb::CacheRecord", ptr %this1, i32 0, i32 2
  %call8 = call noundef i64 @_ZNK7rocksdb5Slice4sizeEv(ptr noundef nonnull align 8 dereferenceable(16) %val_7)
  %call9 = call noundef i32 @_ZN7rocksdb6crc32c6ExtendEjPKcm(i32 noundef %2, ptr noundef %call6, i64 noundef %call8)
  store i32 %call9, ptr %crc, align 4
  %3 = load i32, ptr %crc, align 4
  ret i32 %3
}

; Function Attrs: mustprogress nounwind uwtable
define linkonce_odr void @_ZN7rocksdb5SliceC2EPKcm(ptr noundef nonnull align 8 dereferenceable(16) %this, ptr noundef %d, i64 noundef %n) unnamed_addr #2 comdat align 2 {
entry:
  %this.addr = alloca ptr, align 8
  %d.addr = alloca ptr, align 8
  %n.addr = alloca i64, align 8
  store ptr %this, ptr %this.addr, align 8
  store ptr %d, ptr %d.addr, align 8
  store i64 %n, ptr %n.addr, align 8
  %this1 = load ptr, ptr %this.addr, align 8
  %data_ = getelementptr inbounds %"class.rocksdb::Slice", ptr %this1, i32 0, i32 0
  %0 = load ptr, ptr %d.addr, align 8
  store ptr %0, ptr %data_, align 8
  %size_ = getelementptr inbounds %"class.rocksdb::Slice", ptr %this1, i32 0, i32 1
  %1 = load i64, ptr %n.addr, align 8
  store i64 %1, ptr %size_, align 8
  ret void
}

; Function Attrs: mustprogress nounwind uwtable
define linkonce_odr noundef ptr @_ZNK7rocksdb5Slice4dataEv(ptr noundef nonnull align 8 dereferenceable(16) %this) #2 comdat align 2 {
entry:
  %this.addr = alloca ptr, align 8
  store ptr %this, ptr %this.addr, align 8
  %this1 = load ptr, ptr %this.addr, align 8
  %data_ = getelementptr inbounds %"class.rocksdb::Slice", ptr %this1, i32 0, i32 0
  %0 = load ptr, ptr %data_, align 8
  ret ptr %0
}

; Function Attrs: mustprogress nounwind uwtable
define linkonce_odr noundef i64 @_ZNK7rocksdb5Slice4sizeEv(ptr noundef nonnull align 8 dereferenceable(16) %this) #2 comdat align 2 {
entry:
  %this.addr = alloca ptr, align 8
  store ptr %this, ptr %this.addr, align 8
  %this1 = load ptr, ptr %this.addr, align 8
  %size_ = getelementptr inbounds %"class.rocksdb::Slice", ptr %this1, i32 0, i32 1
  %0 = load i64, ptr %size_, align 8
  ret i64 %0
}

; Function Attrs: mustprogress uwtable
define noundef zeroext i1 @_ZN7rocksdb11CacheRecord11DeserializeERKNS_5SliceE(ptr noundef nonnull align 8 dereferenceable(48) %this, ptr noundef nonnull align 8 dereferenceable(16) %data) #0 align 2 personality ptr @__gxx_personality_v0 {
entry:
  %retval = alloca i1, align 1
  %this.addr = alloca ptr, align 8
  %data.addr = alloca ptr, align 8
  %ref.tmp = alloca %"class.rocksdb::Slice", align 8
  %ref.tmp13 = alloca %"class.rocksdb::Slice", align 8
  %ref.tmp37 = alloca %"class.std::__cxx11::basic_string", align 8
  %exn.slot = alloca ptr, align 8
  %ehselector.slot = alloca i32, align 4
  %ref.tmp41 = alloca %"class.std::__cxx11::basic_string", align 8
  %i = alloca i64, align 8
  store ptr %this, ptr %this.addr, align 8
  store ptr %data, ptr %data.addr, align 8
  %this1 = load ptr, ptr %this.addr, align 8
  %0 = load ptr, ptr %data.addr, align 8
  %call = call noundef i64 @_ZNK7rocksdb5Slice4sizeEv(ptr noundef nonnull align 8 dereferenceable(16) %0)
  %cmp = icmp ult i64 %call, 16
  br i1 %cmp, label %if.then, label %if.end

if.then:                                          ; preds = %entry
  store i1 false, ptr %retval, align 1
  br label %return

if.end:                                           ; preds = %entry
  %hdr_ = getelementptr inbounds %"struct.rocksdb::CacheRecord", ptr %this1, i32 0, i32 0
  %1 = load ptr, ptr %data.addr, align 8
  %call2 = call noundef ptr @_ZNK7rocksdb5Slice4dataEv(ptr noundef nonnull align 8 dereferenceable(16) %1)
  call void @llvm.memcpy.p0.p0.i64(ptr align 8 %hdr_, ptr align 1 %call2, i64 16, i1 false)
  %hdr_3 = getelementptr inbounds %"struct.rocksdb::CacheRecord", ptr %this1, i32 0, i32 0
  %key_size_ = getelementptr inbounds %"struct.rocksdb::CacheRecordHeader", ptr %hdr_3, i32 0, i32 2
  %2 = load i32, ptr %key_size_, align 8
  %hdr_4 = getelementptr inbounds %"struct.rocksdb::CacheRecord", ptr %this1, i32 0, i32 0
  %val_size_ = getelementptr inbounds %"struct.rocksdb::CacheRecordHeader", ptr %hdr_4, i32 0, i32 3
  %3 = load i32, ptr %val_size_, align 4
  %add = add i32 %2, %3
  %conv = zext i32 %add to i64
  %add5 = add i64 %conv, 16
  %4 = load ptr, ptr %data.addr, align 8
  %call6 = call noundef i64 @_ZNK7rocksdb5Slice4sizeEv(ptr noundef nonnull align 8 dereferenceable(16) %4)
  %cmp7 = icmp ne i64 %add5, %call6
  br i1 %cmp7, label %if.then8, label %if.end9

if.then8:                                         ; preds = %if.end
  store i1 false, ptr %retval, align 1
  br label %return

if.end9:                                          ; preds = %if.end
  %5 = load ptr, ptr %data.addr, align 8
  %data_ = getelementptr inbounds %"class.rocksdb::Slice", ptr %5, i32 0, i32 0
  %6 = load ptr, ptr %data_, align 8
  %add.ptr = getelementptr inbounds i8, ptr %6, i64 16
  %hdr_10 = getelementptr inbounds %"struct.rocksdb::CacheRecord", ptr %this1, i32 0, i32 0
  %key_size_11 = getelementptr inbounds %"struct.rocksdb::CacheRecordHeader", ptr %hdr_10, i32 0, i32 2
  %7 = load i32, ptr %key_size_11, align 8
  %conv12 = zext i32 %7 to i64
  call void @_ZN7rocksdb5SliceC2EPKcm(ptr noundef nonnull align 8 dereferenceable(16) %ref.tmp, ptr noundef %add.ptr, i64 noundef %conv12)
  %key_ = getelementptr inbounds %"struct.rocksdb::CacheRecord", ptr %this1, i32 0, i32 1
  call void @llvm.memcpy.p0.p0.i64(ptr align 8 %key_, ptr align 8 %ref.tmp, i64 16, i1 false)
  %key_14 = getelementptr inbounds %"struct.rocksdb::CacheRecord", ptr %this1, i32 0, i32 1
  %data_15 = getelementptr inbounds %"class.rocksdb::Slice", ptr %key_14, i32 0, i32 0
  %8 = load ptr, ptr %data_15, align 8
  %hdr_16 = getelementptr inbounds %"struct.rocksdb::CacheRecord", ptr %this1, i32 0, i32 0
  %key_size_17 = getelementptr inbounds %"struct.rocksdb::CacheRecordHeader", ptr %hdr_16, i32 0, i32 2
  %9 = load i32, ptr %key_size_17, align 8
  %idx.ext = zext i32 %9 to i64
  %add.ptr18 = getelementptr inbounds i8, ptr %8, i64 %idx.ext
  %hdr_19 = getelementptr inbounds %"struct.rocksdb::CacheRecord", ptr %this1, i32 0, i32 0
  %val_size_20 = getelementptr inbounds %"struct.rocksdb::CacheRecordHeader", ptr %hdr_19, i32 0, i32 3
  %10 = load i32, ptr %val_size_20, align 4
  %conv21 = zext i32 %10 to i64
  call void @_ZN7rocksdb5SliceC2EPKcm(ptr noundef nonnull align 8 dereferenceable(16) %ref.tmp13, ptr noundef %add.ptr18, i64 noundef %conv21)
  %val_ = getelementptr inbounds %"struct.rocksdb::CacheRecord", ptr %this1, i32 0, i32 2
  call void @llvm.memcpy.p0.p0.i64(ptr align 8 %val_, ptr align 8 %ref.tmp13, i64 16, i1 false)
  %hdr_22 = getelementptr inbounds %"struct.rocksdb::CacheRecord", ptr %this1, i32 0, i32 0
  %magic_ = getelementptr inbounds %"struct.rocksdb::CacheRecordHeader", ptr %hdr_22, i32 0, i32 0
  %11 = load i32, ptr %magic_, align 8
  %cmp23 = icmp eq i32 %11, 65274
  br i1 %cmp23, label %land.lhs.true, label %if.then27

land.lhs.true:                                    ; preds = %if.end9
  %call24 = call noundef i32 @_ZNK7rocksdb11CacheRecord10ComputeCRCEv(ptr noundef nonnull align 8 dereferenceable(48) %this1)
  %hdr_25 = getelementptr inbounds %"struct.rocksdb::CacheRecord", ptr %this1, i32 0, i32 0
  %crc_ = getelementptr inbounds %"struct.rocksdb::CacheRecordHeader", ptr %hdr_25, i32 0, i32 1
  %12 = load i32, ptr %crc_, align 4
  %cmp26 = icmp eq i32 %call24, %12
  br i1 %cmp26, label %if.end59, label %if.then27

if.then27:                                        ; preds = %land.lhs.true, %if.end9
  %13 = load ptr, ptr @stderr, align 8
  %hdr_28 = getelementptr inbounds %"struct.rocksdb::CacheRecord", ptr %this1, i32 0, i32 0
  %magic_29 = getelementptr inbounds %"struct.rocksdb::CacheRecordHeader", ptr %hdr_28, i32 0, i32 0
  %14 = load i32, ptr %magic_29, align 8
  %call30 = call i32 (ptr, ptr, ...) @fprintf(ptr noundef %13, ptr noundef @.str, i32 noundef %14)
  %15 = load ptr, ptr @stderr, align 8
  %hdr_31 = getelementptr inbounds %"struct.rocksdb::CacheRecord", ptr %this1, i32 0, i32 0
  %key_size_32 = getelementptr inbounds %"struct.rocksdb::CacheRecordHeader", ptr %hdr_31, i32 0, i32 2
  %16 = load i32, ptr %key_size_32, align 8
  %call33 = call i32 (ptr, ptr, ...) @fprintf(ptr noundef %15, ptr noundef @.str.1, i32 noundef %16)
  %17 = load ptr, ptr @stderr, align 8
  %hdr_34 = getelementptr inbounds %"struct.rocksdb::CacheRecord", ptr %this1, i32 0, i32 0
  %val_size_35 = getelementptr inbounds %"struct.rocksdb::CacheRecordHeader", ptr %hdr_34, i32 0, i32 3
  %18 = load i32, ptr %val_size_35, align 4
  %call36 = call i32 (ptr, ptr, ...) @fprintf(ptr noundef %17, ptr noundef @.str.2, i32 noundef %18)
  %19 = load ptr, ptr @stderr, align 8
  %key_38 = getelementptr inbounds %"struct.rocksdb::CacheRecord", ptr %this1, i32 0, i32 1
  call void @_ZNK7rocksdb5Slice8ToStringB5cxx11Eb(ptr sret(%"class.std::__cxx11::basic_string") align 8 %ref.tmp37, ptr noundef nonnull align 8 dereferenceable(16) %key_38, i1 noundef zeroext false)
  %call39 = call noundef ptr @_ZNKSt7__cxx1112basic_stringIcSt11char_traitsIcESaIcEE5c_strEv(ptr noundef nonnull align 8 dereferenceable(32) %ref.tmp37) #12
  %call40 = invoke i32 (ptr, ptr, ...) @fprintf(ptr noundef %19, ptr noundef @.str.3, ptr noundef %call39)
          to label %invoke.cont unwind label %lpad

invoke.cont:                                      ; preds = %if.then27
  call void @_ZNSt7__cxx1112basic_stringIcSt11char_traitsIcESaIcEED1Ev(ptr noundef nonnull align 8 dereferenceable(32) %ref.tmp37) #12
  %20 = load ptr, ptr @stderr, align 8
  %val_42 = getelementptr inbounds %"struct.rocksdb::CacheRecord", ptr %this1, i32 0, i32 2
  call void @_ZNK7rocksdb5Slice8ToStringB5cxx11Eb(ptr sret(%"class.std::__cxx11::basic_string") align 8 %ref.tmp41, ptr noundef nonnull align 8 dereferenceable(16) %val_42, i1 noundef zeroext false)
  %call43 = call noundef ptr @_ZNKSt7__cxx1112basic_stringIcSt11char_traitsIcESaIcEE5c_strEv(ptr noundef nonnull align 8 dereferenceable(32) %ref.tmp41) #12
  %call46 = invoke i32 (ptr, ptr, ...) @fprintf(ptr noundef %20, ptr noundef @.str.4, ptr noundef %call43)
          to label %invoke.cont45 unwind label %lpad44

invoke.cont45:                                    ; preds = %invoke.cont
  call void @_ZNSt7__cxx1112basic_stringIcSt11char_traitsIcESaIcEED1Ev(ptr noundef nonnull align 8 dereferenceable(32) %ref.tmp41) #12
  store i64 0, ptr %i, align 8
  br label %for.cond

for.cond:                                         ; preds = %for.inc, %invoke.cont45
  %21 = load i64, ptr %i, align 8
  %hdr_47 = getelementptr inbounds %"struct.rocksdb::CacheRecord", ptr %this1, i32 0, i32 0
  %val_size_48 = getelementptr inbounds %"struct.rocksdb::CacheRecordHeader", ptr %hdr_47, i32 0, i32 3
  %22 = load i32, ptr %val_size_48, align 4
  %conv49 = zext i32 %22 to i64
  %cmp50 = icmp ult i64 %21, %conv49
  br i1 %cmp50, label %for.body, label %for.end

for.body:                                         ; preds = %for.cond
  %23 = load ptr, ptr @stderr, align 8
  %val_51 = getelementptr inbounds %"struct.rocksdb::CacheRecord", ptr %this1, i32 0, i32 2
  %call52 = call noundef ptr @_ZNK7rocksdb5Slice4dataEv(ptr noundef nonnull align 8 dereferenceable(16) %val_51)
  %24 = load i64, ptr %i, align 8
  %arrayidx = getelementptr inbounds i8, ptr %call52, i64 %24
  %25 = load i8, ptr %arrayidx, align 1
  %conv53 = zext i8 %25 to i32
  %call54 = call i32 (ptr, ptr, ...) @fprintf(ptr noundef %23, ptr noundef @.str.5, i32 noundef %conv53)
  br label %for.inc

for.inc:                                          ; preds = %for.body
  %26 = load i64, ptr %i, align 8
  %inc = add i64 %26, 1
  store i64 %inc, ptr %i, align 8
  br label %for.cond, !llvm.loop !6

lpad:                                             ; preds = %if.then27
  %27 = landingpad { ptr, i32 }
          cleanup
  %28 = extractvalue { ptr, i32 } %27, 0
  store ptr %28, ptr %exn.slot, align 8
  %29 = extractvalue { ptr, i32 } %27, 1
  store i32 %29, ptr %ehselector.slot, align 4
  call void @_ZNSt7__cxx1112basic_stringIcSt11char_traitsIcESaIcEED1Ev(ptr noundef nonnull align 8 dereferenceable(32) %ref.tmp37) #12
  br label %eh.resume

lpad44:                                           ; preds = %invoke.cont
  %30 = landingpad { ptr, i32 }
          cleanup
  %31 = extractvalue { ptr, i32 } %30, 0
  store ptr %31, ptr %exn.slot, align 8
  %32 = extractvalue { ptr, i32 } %30, 1
  store i32 %32, ptr %ehselector.slot, align 4
  call void @_ZNSt7__cxx1112basic_stringIcSt11char_traitsIcESaIcEED1Ev(ptr noundef nonnull align 8 dereferenceable(32) %ref.tmp41) #12
  br label %eh.resume

for.end:                                          ; preds = %for.cond
  %33 = load ptr, ptr @stderr, align 8
  %hdr_55 = getelementptr inbounds %"struct.rocksdb::CacheRecord", ptr %this1, i32 0, i32 0
  %crc_56 = getelementptr inbounds %"struct.rocksdb::CacheRecordHeader", ptr %hdr_55, i32 0, i32 1
  %34 = load i32, ptr %crc_56, align 4
  %call57 = call noundef i32 @_ZNK7rocksdb11CacheRecord10ComputeCRCEv(ptr noundef nonnull align 8 dereferenceable(48) %this1)
  %call58 = call i32 (ptr, ptr, ...) @fprintf(ptr noundef %33, ptr noundef @.str.6, i32 noundef %34, i32 noundef %call57)
  br label %if.end59

if.end59:                                         ; preds = %for.end, %land.lhs.true
  %hdr_60 = getelementptr inbounds %"struct.rocksdb::CacheRecord", ptr %this1, i32 0, i32 0
  %magic_61 = getelementptr inbounds %"struct.rocksdb::CacheRecordHeader", ptr %hdr_60, i32 0, i32 0
  %35 = load i32, ptr %magic_61, align 8
  %cmp62 = icmp eq i32 %35, 65274
  br i1 %cmp62, label %land.rhs, label %land.end

land.rhs:                                         ; preds = %if.end59
  %call63 = call noundef i32 @_ZNK7rocksdb11CacheRecord10ComputeCRCEv(ptr noundef nonnull align 8 dereferenceable(48) %this1)
  %hdr_64 = getelementptr inbounds %"struct.rocksdb::CacheRecord", ptr %this1, i32 0, i32 0
  %crc_65 = getelementptr inbounds %"struct.rocksdb::CacheRecordHeader", ptr %hdr_64, i32 0, i32 1
  %36 = load i32, ptr %crc_65, align 4
  %cmp66 = icmp eq i32 %call63, %36
  br label %land.end

land.end:                                         ; preds = %land.rhs, %if.end59
  %37 = phi i1 [ false, %if.end59 ], [ %cmp66, %land.rhs ]
  store i1 %37, ptr %retval, align 1
  br label %return

return:                                           ; preds = %land.end, %if.then8, %if.then
  %38 = load i1, ptr %retval, align 1
  ret i1 %38

eh.resume:                                        ; preds = %lpad44, %lpad
  %exn = load ptr, ptr %exn.slot, align 8
  %sel = load i32, ptr %ehselector.slot, align 4
  %lpad.val = insertvalue { ptr, i32 } poison, ptr %exn, 0
  %lpad.val67 = insertvalue { ptr, i32 } %lpad.val, i32 %sel, 1
  resume { ptr, i32 } %lpad.val67
}