; Function Attrs: mustprogress uwtable
define noundef zeroext i1 @_ZN7rocksdb11CacheRecord11DeserializeERKNS_5SliceE(ptr noundef nonnull align 8 dereferenceable(48) %this, ptr nocapture noundef nonnull readonly align 8 dereferenceable(16) %data) local_unnamed_addr #0 align 2 personality ptr @__gxx_personality_v0 {
entry:
  %tmp.i18 = alloca %"struct.rocksdb::CacheRecordHeader", align 4
  %tmp.i9 = alloca %"struct.rocksdb::CacheRecordHeader", align 4
  %tmp.i = alloca %"struct.rocksdb::CacheRecordHeader", align 4
  %ref.tmp37 = alloca %"class.std::__cxx11::basic_string", align 8
  %ref.tmp41 = alloca %"class.std::__cxx11::basic_string", align 8
  %size_.i = getelementptr inbounds i8, ptr %data, i64 8
  %0 = load i64, ptr %size_.i, align 8
  %cmp = icmp ult i64 %0, 16
  br i1 %cmp, label %return, label %if.end

if.end:                                           ; preds = %entry
  %1 = load ptr, ptr %data, align 8
  tail call void @llvm.memcpy.p0.p0.i64(ptr noundef nonnull align 8 dereferenceable(16) %this, ptr noundef nonnull align 1 dereferenceable(16) %1, i64 16, i1 false)
  %key_size_ = getelementptr inbounds i8, ptr %this, i64 8
  %2 = load i32, ptr %key_size_, align 8
  %val_size_ = getelementptr inbounds i8, ptr %this, i64 12
  %3 = load i32, ptr %val_size_, align 4
  %add = add i32 %3, %2
  %conv = zext i32 %add to i64
  %add5 = add nuw nsw i64 %conv, 16
  %4 = load i64, ptr %size_.i, align 8
  %cmp7.not = icmp eq i64 %add5, %4
  br i1 %cmp7.not, label %if.end9, label %return

if.end9:                                          ; preds = %if.end
  %5 = load ptr, ptr %data, align 8
  %add.ptr = getelementptr inbounds i8, ptr %5, i64 16
  %conv12 = zext i32 %2 to i64
  %key_ = getelementptr inbounds i8, ptr %this, i64 16
  store ptr %add.ptr, ptr %key_, align 8
  %ref.tmp.sroa.2.0.key_.sroa_idx = getelementptr inbounds i8, ptr %this, i64 24
  store i64 %conv12, ptr %ref.tmp.sroa.2.0.key_.sroa_idx, align 8
  %add.ptr18 = getelementptr inbounds i8, ptr %add.ptr, i64 %conv12
  %conv21 = zext i32 %3 to i64
  %val_ = getelementptr inbounds i8, ptr %this, i64 32
  store ptr %add.ptr18, ptr %val_, align 8
  %ref.tmp13.sroa.2.0.val_.sroa_idx = getelementptr inbounds i8, ptr %this, i64 40
  store i64 %conv21, ptr %ref.tmp13.sroa.2.0.val_.sroa_idx, align 8
  %6 = load i32, ptr %this, align 8
  %cmp23 = icmp eq i32 %6, 65274
  br i1 %cmp23, label %land.lhs.true, label %if.then27

land.lhs.true:                                    ; preds = %if.end9
  call void @llvm.lifetime.start.p0(i64 16, ptr nonnull %tmp.i)
  call void @llvm.memcpy.p0.p0.i64(ptr noundef nonnull align 4 dereferenceable(16) %tmp.i, ptr noundef nonnull align 8 dereferenceable(16) %this, i64 16, i1 false)
  %crc_.i = getelementptr inbounds i8, ptr %tmp.i, i64 4
  store i32 0, ptr %crc_.i, align 4
  %call.i = call noundef i32 @_ZN7rocksdb6crc32c6ExtendEjPKcm(i32 noundef 0, ptr noundef nonnull %tmp.i, i64 noundef 16)
  %7 = load ptr, ptr %key_, align 8
  %8 = load i64, ptr %ref.tmp.sroa.2.0.key_.sroa_idx, align 8
  %call5.i = call noundef i32 @_ZN7rocksdb6crc32c6ExtendEjPKcm(i32 noundef %call.i, ptr noundef %7, i64 noundef %8)
  %9 = load ptr, ptr %val_, align 8
  %10 = load i64, ptr %ref.tmp13.sroa.2.0.val_.sroa_idx, align 8
  %call9.i = call noundef i32 @_ZN7rocksdb6crc32c6ExtendEjPKcm(i32 noundef %call5.i, ptr noundef %9, i64 noundef %10)
  call void @llvm.lifetime.end.p0(i64 16, ptr nonnull %tmp.i)
  %crc_ = getelementptr inbounds i8, ptr %this, i64 4
  %11 = load i32, ptr %crc_, align 4
  %cmp26 = icmp eq i32 %call9.i, %11
  br i1 %cmp26, label %if.end59, label %land.lhs.true.if.then27_crit_edge

land.lhs.true.if.then27_crit_edge:                ; preds = %land.lhs.true
  %.pre = load i32, ptr %this, align 8
  br label %if.then27

if.then27:                                        ; preds = %land.lhs.true.if.then27_crit_edge, %if.end9
  %12 = phi i32 [ %.pre, %land.lhs.true.if.then27_crit_edge ], [ %6, %if.end9 ]
  %13 = load ptr, ptr @stderr, align 8
  %call30 = call i32 (ptr, ptr, ...) @fprintf(ptr noundef %13, ptr noundef nonnull @.str, i32 noundef %12) #17
  %14 = load ptr, ptr @stderr, align 8
  %15 = load i32, ptr %key_size_, align 8
  %call33 = call i32 (ptr, ptr, ...) @fprintf(ptr noundef %14, ptr noundef nonnull @.str.1, i32 noundef %15) #17
  %16 = load ptr, ptr @stderr, align 8
  %17 = load i32, ptr %val_size_, align 4
  %call36 = call i32 (ptr, ptr, ...) @fprintf(ptr noundef %16, ptr noundef nonnull @.str.2, i32 noundef %17) #17
  %18 = load ptr, ptr @stderr, align 8
  call void @_ZNK7rocksdb5Slice8ToStringB5cxx11Eb(ptr nonnull sret(%"class.std::__cxx11::basic_string") align 8 %ref.tmp37, ptr noundef nonnull align 8 dereferenceable(16) %key_, i1 noundef zeroext false)
  %call39 = call noundef ptr @_ZNKSt7__cxx1112basic_stringIcSt11char_traitsIcESaIcEE5c_strEv(ptr noundef nonnull align 8 dereferenceable(32) %ref.tmp37) #15
  %call40 = call i32 (ptr, ptr, ...) @fprintf(ptr noundef %18, ptr noundef nonnull @.str.3, ptr noundef %call39) #17
  call void @_ZNSt7__cxx1112basic_stringIcSt11char_traitsIcESaIcEED1Ev(ptr noundef nonnull align 8 dereferenceable(32) %ref.tmp37) #15
  %19 = load ptr, ptr @stderr, align 8
  call void @_ZNK7rocksdb5Slice8ToStringB5cxx11Eb(ptr nonnull sret(%"class.std::__cxx11::basic_string") align 8 %ref.tmp41, ptr noundef nonnull align 8 dereferenceable(16) %val_, i1 noundef zeroext false)
  %call43 = call noundef ptr @_ZNKSt7__cxx1112basic_stringIcSt11char_traitsIcESaIcEE5c_strEv(ptr noundef nonnull align 8 dereferenceable(32) %ref.tmp41) #15
  %call46 = call i32 (ptr, ptr, ...) @fprintf(ptr noundef %19, ptr noundef nonnull @.str.4, ptr noundef %call43) #17
  call void @_ZNSt7__cxx1112basic_stringIcSt11char_traitsIcESaIcEED1Ev(ptr noundef nonnull align 8 dereferenceable(32) %ref.tmp41) #15
  %20 = load i32, ptr %val_size_, align 4
  %cmp5028.not = icmp eq i32 %20, 0
  br i1 %cmp5028.not, label %for.end, label %for.body

for.body:                                         ; preds = %if.then27, %for.body
  %i.029 = phi i64 [ %inc, %for.body ], [ 0, %if.then27 ]
  %21 = load ptr, ptr @stderr, align 8
  %22 = load ptr, ptr %val_, align 8
  %arrayidx = getelementptr inbounds i8, ptr %22, i64 %i.029
  %23 = load i8, ptr %arrayidx, align 1
  %conv53 = zext i8 %23 to i32
  %call54 = call i32 (ptr, ptr, ...) @fprintf(ptr noundef %21, ptr noundef nonnull @.str.5, i32 noundef %conv53) #17
  %inc = add nuw nsw i64 %i.029, 1
  %24 = load i32, ptr %val_size_, align 4
  %conv49 = zext i32 %24 to i64
  %cmp50 = icmp ult i64 %inc, %conv49
  br i1 %cmp50, label %for.body, label %for.end, !llvm.loop !10

for.end:                                          ; preds = %for.body, %if.then27
  %25 = load ptr, ptr @stderr, align 8
  %crc_56 = getelementptr inbounds i8, ptr %this, i64 4
  %26 = load i32, ptr %crc_56, align 4
  call void @llvm.lifetime.start.p0(i64 16, ptr nonnull %tmp.i9)
  call void @llvm.memcpy.p0.p0.i64(ptr noundef nonnull align 4 dereferenceable(16) %tmp.i9, ptr noundef nonnull align 8 dereferenceable(16) %this, i64 16, i1 false)
  %crc_.i10 = getelementptr inbounds i8, ptr %tmp.i9, i64 4
  store i32 0, ptr %crc_.i10, align 4
  %call.i11 = call noundef i32 @_ZN7rocksdb6crc32c6ExtendEjPKcm(i32 noundef 0, ptr noundef nonnull %tmp.i9, i64 noundef 16)
  %27 = load ptr, ptr %key_, align 8
  %28 = load i64, ptr %ref.tmp.sroa.2.0.key_.sroa_idx, align 8
  %call5.i14 = call noundef i32 @_ZN7rocksdb6crc32c6ExtendEjPKcm(i32 noundef %call.i11, ptr noundef %27, i64 noundef %28)
  %29 = load ptr, ptr %val_, align 8
  %30 = load i64, ptr %ref.tmp13.sroa.2.0.val_.sroa_idx, align 8
  %call9.i17 = call noundef i32 @_ZN7rocksdb6crc32c6ExtendEjPKcm(i32 noundef %call5.i14, ptr noundef %29, i64 noundef %30)
  call void @llvm.lifetime.end.p0(i64 16, ptr nonnull %tmp.i9)
  %call58 = call i32 (ptr, ptr, ...) @fprintf(ptr noundef %25, ptr noundef nonnull @.str.6, i32 noundef %26, i32 noundef %call9.i17) #17
  br label %if.end59

if.end59:                                         ; preds = %for.end, %land.lhs.true
  %31 = load i32, ptr %this, align 8
  %cmp62 = icmp eq i32 %31, 65274
  br i1 %cmp62, label %land.rhs, label %return

land.rhs:                                         ; preds = %if.end59
  call void @llvm.lifetime.start.p0(i64 16, ptr nonnull %tmp.i18)
  call void @llvm.memcpy.p0.p0.i64(ptr noundef nonnull align 4 dereferenceable(16) %tmp.i18, ptr noundef nonnull align 8 dereferenceable(16) %this, i64 16, i1 false)
  %crc_.i19 = getelementptr inbounds i8, ptr %tmp.i18, i64 4
  store i32 0, ptr %crc_.i19, align 4
  %call.i20 = call noundef i32 @_ZN7rocksdb6crc32c6ExtendEjPKcm(i32 noundef 0, ptr noundef nonnull %tmp.i18, i64 noundef 16)
  %32 = load ptr, ptr %key_, align 8
  %33 = load i64, ptr %ref.tmp.sroa.2.0.key_.sroa_idx, align 8
  %call5.i23 = call noundef i32 @_ZN7rocksdb6crc32c6ExtendEjPKcm(i32 noundef %call.i20, ptr noundef %32, i64 noundef %33)
  %34 = load ptr, ptr %val_, align 8
  %35 = load i64, ptr %ref.tmp13.sroa.2.0.val_.sroa_idx, align 8
  %call9.i26 = call noundef i32 @_ZN7rocksdb6crc32c6ExtendEjPKcm(i32 noundef %call5.i23, ptr noundef %34, i64 noundef %35)
  call void @llvm.lifetime.end.p0(i64 16, ptr nonnull %tmp.i18)
  %crc_65 = getelementptr inbounds i8, ptr %this, i64 4
  %36 = load i32, ptr %crc_65, align 4
  %cmp66 = icmp eq i32 %call9.i26, %36
  br label %return

return:                                           ; preds = %if.end59, %land.rhs, %if.end, %entry
  %retval.0 = phi i1 [ false, %entry ], [ false, %if.end ], [ false, %if.end59 ], [ %cmp66, %land.rhs ]
  ret i1 %retval.0
}